; ModuleID = 'source-C-CXX/0/820.cpp'
source_filename = "source-C-CXX/0/820.cpp"
target datalayout = "e-m:e-p270:32:32-p271:32:32-p272:64:64-i64:64-f80:128-n8:16:32:64-S128"
target triple = "x86_64-pc-linux-gnu"

%"class.std::ios_base::Init" = type { i8 }
%"class.std::basic_istream" = type { i32 (...)**, i64, %"class.std::basic_ios" }
%"class.std::basic_ios" = type { %"class.std::ios_base", %"class.std::basic_ostream"*, i8, i8, %"class.std::basic_streambuf"*, %"class.std::ctype"*, %"class.std::num_put"*, %"class.std::num_get"* }
%"class.std::ios_base" = type { i32 (...)**, i64, i64, i32, i32, i32, %"struct.std::ios_base::_Callback_list"*, %"struct.std::ios_base::_Words", [8 x %"struct.std::ios_base::_Words"], i32, %"struct.std::ios_base::_Words"*, %"class.std::locale" }
%"struct.std::ios_base::_Callback_list" = type { %"struct.std::ios_base::_Callback_list"*, void (i32, %"class.std::ios_base"*, i32)*, i32, i32 }
%"struct.std::ios_base::_Words" = type { i8*, i64 }
%"class.std::locale" = type { %"class.std::locale::_Impl"* }
%"class.std::locale::_Impl" = type { i32, %"class.std::locale::facet"**, i64, %"class.std::locale::facet"**, i8** }
%"class.std::locale::facet" = type <{ i32 (...)**, i32, [4 x i8] }>
%"class.std::basic_ostream" = type { i32 (...)**, %"class.std::basic_ios" }
%"class.std::basic_streambuf" = type { i32 (...)**, i8*, i8*, i8*, i8*, i8*, i8*, %"class.std::locale" }
%"class.std::ctype" = type <{ %"class.std::locale::facet.base", [4 x i8], %struct.__locale_struct*, i8, [7 x i8], i32*, i32*, i16*, i8, [256 x i8], [256 x i8], i8, [6 x i8] }>
%"class.std::locale::facet.base" = type <{ i32 (...)**, i32 }>
%struct.__locale_struct = type { [13 x %struct.__locale_data*], i16*, i32*, i32*, [13 x i8*] }
%struct.__locale_data = type opaque
%"class.std::num_put" = type { %"class.std::locale::facet.base", [4 x i8] }
%"class.std::num_get" = type { %"class.std::locale::facet.base", [4 x i8] }

@_ZStL8__ioinit = internal global %"class.std::ios_base::Init" zeroinitializer, align 1
@__dso_handle = external hidden global i8
@sum = dso_local local_unnamed_addr global i32 0, align 4
@yueshu = dso_local local_unnamed_addr global [100 x i32] zeroinitializer, align 16
@s = dso_local local_unnamed_addr global i32 0, align 4
@_ZSt3cin = external global %"class.std::basic_istream", align 8
@_ZSt4cout = external global %"class.std::basic_ostream", align 8
@llvm.global_ctors = appending global [1 x { i32, void ()*, i8* }] [{ i32, void ()*, i8* } { i32 65535, void ()* @_GLOBAL__sub_I_820.cpp, i8* null }]

declare void @_ZNSt8ios_base4InitC1Ev(%"class.std::ios_base::Init"* nonnull align 1 dereferenceable(1)) unnamed_addr #0

; Function Attrs: nounwind
declare void @_ZNSt8ios_base4InitD1Ev(%"class.std::ios_base::Init"* nonnull align 1 dereferenceable(1)) unnamed_addr #1

; Function Attrs: nofree nounwind
declare i32 @__cxa_atexit(void (i8*)*, i8*, i8*) local_unnamed_addr #2

; Function Attrs: mustprogress nofree nosync nounwind sspstrong uwtable
define dso_local void @_Z6numberii(i32 %0, i32 %1) local_unnamed_addr #3 {
  %3 = icmp sgt i32 %1, -1
  br i1 %3, label %4, label %27

4:                                                ; preds = %2
  %5 = zext i32 %1 to i64
  br label %6

6:                                                ; preds = %4, %24
  %7 = phi i64 [ %5, %4 ], [ %26, %24 ]
  %8 = getelementptr inbounds [100 x i32], [100 x i32]* @yueshu, i64 0, i64 %7
  %9 = load i32, i32* %8, align 4, !tbaa !5
  %10 = icmp sgt i32 %9, %0
  br i1 %10, label %24, label %11

11:                                               ; preds = %6
  %12 = icmp eq i32 %9, %0
  br i1 %12, label %13, label %16

13:                                               ; preds = %11
  %14 = load i32, i32* @sum, align 4, !tbaa !5
  %15 = add nsw i32 %14, 1
  store i32 %15, i32* @sum, align 4, !tbaa !5
  br label %24

16:                                               ; preds = %11
  %17 = icmp slt i32 %9, %0
  br i1 %17, label %18, label %24

18:                                               ; preds = %16
  %19 = srem i32 %0, %9
  %20 = sdiv i32 %0, %9
  %21 = icmp eq i32 %19, 0
  br i1 %21, label %22, label %24

22:                                               ; preds = %18
  %23 = trunc i64 %7 to i32
  tail call void @_Z6numberii(i32 %20, i32 %23)
  br label %24

24:                                               ; preds = %13, %22, %18, %16, %6
  %25 = icmp sgt i64 %7, 0
  %26 = add nsw i64 %7, -1
  br i1 %25, label %6, label %27, !llvm.loop !9

27:                                               ; preds = %24, %2
  ret void
}

; Function Attrs: argmemonly mustprogress nofree nosync nounwind willreturn
declare void @llvm.lifetime.start.p0i8(i64 immarg, i8* nocapture) #4

; Function Attrs: argmemonly mustprogress nofree nosync nounwind willreturn
declare void @llvm.lifetime.end.p0i8(i64 immarg, i8* nocapture) #4

; Function Attrs: mustprogress norecurse sspstrong uwtable
define dso_local i32 @main() local_unnamed_addr #5 {
  %1 = alloca i32, align 4
  %2 = alloca i32, align 4
  %3 = bitcast i32* %1 to i8*
  call void @llvm.lifetime.start.p0i8(i64 4, i8* nonnull %3) #8
  store i32 0, i32* %1, align 4, !tbaa !5
  %4 = call nonnull align 8 dereferenceable(16) %"class.std::basic_istream"* @_ZNSirsERi(%"class.std::basic_istream"* nonnull align 8 dereferenceable(16) @_ZSt3cin, i32* nonnull align 4 dereferenceable(4) %1)
  %5 = bitcast i32* %2 to i8*
  call void @llvm.lifetime.start.p0i8(i64 4, i8* nonnull %5) #8
  store i32 0, i32* %2, align 4, !tbaa !5
  %6 = call nonnull align 8 dereferenceable(16) %"class.std::basic_istream"* @_ZNSirsERi(%"class.std::basic_istream"* nonnull align 8 dereferenceable(16) @_ZSt3cin, i32* nonnull align 4 dereferenceable(4) %2)
  %7 = bitcast %"class.std::basic_istream"* %6 to i8**
  %8 = load i8*, i8** %7, align 8, !tbaa !11
  %9 = getelementptr i8, i8* %8, i64 -24
  %10 = bitcast i8* %9 to i64*
  %11 = load i64, i64* %10, align 8
  %12 = bitcast %"class.std::basic_istream"* %6 to i8*
  %13 = add nsw i64 %11, 32
  %14 = getelementptr inbounds i8, i8* %12, i64 %13
  %15 = bitcast i8* %14 to i32*
  %16 = load i32, i32* %15, align 8, !tbaa !13
  %17 = and i32 %16, 5
  %18 = icmp eq i32 %17, 0
  br i1 %18, label %19, label %102

19:                                               ; preds = %0, %85
  %20 = load i32, i32* %2, align 4, !tbaa !5
  %21 = icmp slt i32 %20, 2
  br i1 %21, label %55, label %22

22:                                               ; preds = %19
  %23 = add i32 %20, -1
  %24 = and i32 %23, 1
  %25 = icmp eq i32 %20, 2
  br i1 %25, label %43, label %26

26:                                               ; preds = %22
  %27 = and i32 %23, -2
  br label %28

28:                                               ; preds = %107, %26
  %29 = phi i32 [ 0, %26 ], [ %108, %107 ]
  %30 = phi i32 [ 2, %26 ], [ %109, %107 ]
  %31 = phi i32 [ %27, %26 ], [ %110, %107 ]
  %32 = srem i32 %20, %30
  %33 = icmp eq i32 %32, 0
  br i1 %33, label %34, label %38

34:                                               ; preds = %28
  %35 = sext i32 %29 to i64
  %36 = getelementptr inbounds [100 x i32], [100 x i32]* @yueshu, i64 0, i64 %35
  store i32 %30, i32* %36, align 4, !tbaa !5
  %37 = add nsw i32 %29, 1
  br label %38

38:                                               ; preds = %28, %34
  %39 = phi i32 [ %37, %34 ], [ %29, %28 ]
  %40 = or i32 %30, 1
  %41 = srem i32 %20, %40
  %42 = icmp eq i32 %41, 0
  br i1 %42, label %103, label %107

43:                                               ; preds = %107, %22
  %44 = phi i32 [ undef, %22 ], [ %108, %107 ]
  %45 = phi i32 [ 0, %22 ], [ %108, %107 ]
  %46 = phi i32 [ 2, %22 ], [ %109, %107 ]
  %47 = icmp eq i32 %24, 0
  br i1 %47, label %55, label %48

48:                                               ; preds = %43
  %49 = srem i32 %20, %46
  %50 = icmp eq i32 %49, 0
  br i1 %50, label %51, label %55

51:                                               ; preds = %48
  %52 = sext i32 %45 to i64
  %53 = getelementptr inbounds [100 x i32], [100 x i32]* @yueshu, i64 0, i64 %52
  store i32 %46, i32* %53, align 4, !tbaa !5
  %54 = add nsw i32 %45, 1
  br label %55

55:                                               ; preds = %43, %48, %51, %19
  %56 = phi i32 [ 0, %19 ], [ %44, %43 ], [ %54, %51 ], [ %45, %48 ]
  %57 = add nsw i32 %56, -1
  store i32 %57, i32* @s, align 4, !tbaa !5
  call void @_Z6numberii(i32 %20, i32 %57)
  %58 = load i32, i32* @sum, align 4, !tbaa !5
  %59 = call nonnull align 8 dereferenceable(8) %"class.std::basic_ostream"* @_ZNSolsEi(%"class.std::basic_ostream"* nonnull align 8 dereferenceable(8) @_ZSt4cout, i32 %58)
  %60 = bitcast %"class.std::basic_ostream"* %59 to i8**
  %61 = load i8*, i8** %60, align 8, !tbaa !11
  %62 = getelementptr i8, i8* %61, i64 -24
  %63 = bitcast i8* %62 to i64*
  %64 = load i64, i64* %63, align 8
  %65 = bitcast %"class.std::basic_ostream"* %59 to i8*
  %66 = add nsw i64 %64, 240
  %67 = getelementptr inbounds i8, i8* %65, i64 %66
  %68 = bitcast i8* %67 to %"class.std::ctype"**
  %69 = load %"class.std::ctype"*, %"class.std::ctype"** %68, align 8, !tbaa !21
  %70 = icmp eq %"class.std::ctype"* %69, null
  br i1 %70, label %71, label %72

71:                                               ; preds = %55
  call void @_ZSt16__throw_bad_castv() #9
  unreachable

72:                                               ; preds = %55
  %73 = getelementptr inbounds %"class.std::ctype", %"class.std::ctype"* %69, i64 0, i32 8
  %74 = load i8, i8* %73, align 8, !tbaa !24
  %75 = icmp eq i8 %74, 0
  br i1 %75, label %79, label %76

76:                                               ; preds = %72
  %77 = getelementptr inbounds %"class.std::ctype", %"class.std::ctype"* %69, i64 0, i32 9, i64 10
  %78 = load i8, i8* %77, align 1, !tbaa !26
  br label %85

79:                                               ; preds = %72
  call void @_ZNKSt5ctypeIcE13_M_widen_initEv(%"class.std::ctype"* nonnull align 8 dereferenceable(570) %69)
  %80 = bitcast %"class.std::ctype"* %69 to i8 (%"class.std::ctype"*, i8)***
  %81 = load i8 (%"class.std::ctype"*, i8)**, i8 (%"class.std::ctype"*, i8)*** %80, align 8, !tbaa !11
  %82 = getelementptr inbounds i8 (%"class.std::ctype"*, i8)*, i8 (%"class.std::ctype"*, i8)** %81, i64 6
  %83 = load i8 (%"class.std::ctype"*, i8)*, i8 (%"class.std::ctype"*, i8)** %82, align 8
  %84 = call signext i8 %83(%"class.std::ctype"* nonnull align 8 dereferenceable(570) %69, i8 signext 10)
  br label %85

85:                                               ; preds = %76, %79
  %86 = phi i8 [ %78, %76 ], [ %84, %79 ]
  %87 = call nonnull align 8 dereferenceable(8) %"class.std::basic_ostream"* @_ZNSo3putEc(%"class.std::basic_ostream"* nonnull align 8 dereferenceable(8) %59, i8 signext %86)
  %88 = call nonnull align 8 dereferenceable(8) %"class.std::basic_ostream"* @_ZNSo5flushEv(%"class.std::basic_ostream"* nonnull align 8 dereferenceable(8) %87)
  store i32 0, i32* @sum, align 4, !tbaa !5
  %89 = call nonnull align 8 dereferenceable(16) %"class.std::basic_istream"* @_ZNSirsERi(%"class.std::basic_istream"* nonnull align 8 dereferenceable(16) @_ZSt3cin, i32* nonnull align 4 dereferenceable(4) %2)
  %90 = bitcast %"class.std::basic_istream"* %89 to i8**
  %91 = load i8*, i8** %90, align 8, !tbaa !11
  %92 = getelementptr i8, i8* %91, i64 -24
  %93 = bitcast i8* %92 to i64*
  %94 = load i64, i64* %93, align 8
  %95 = bitcast %"class.std::basic_istream"* %89 to i8*
  %96 = add nsw i64 %94, 32
  %97 = getelementptr inbounds i8, i8* %95, i64 %96
  %98 = bitcast i8* %97 to i32*
  %99 = load i32, i32* %98, align 8, !tbaa !13
  %100 = and i32 %99, 5
  %101 = icmp eq i32 %100, 0
  br i1 %101, label %19, label %102, !llvm.loop !27

102:                                              ; preds = %85, %0
  call void @llvm.lifetime.end.p0i8(i64 4, i8* nonnull %5) #8
  call void @llvm.lifetime.end.p0i8(i64 4, i8* nonnull %3) #8
  ret i32 0

103:                                              ; preds = %38
  %104 = sext i32 %39 to i64
  %105 = getelementptr inbounds [100 x i32], [100 x i32]* @yueshu, i64 0, i64 %104
  store i32 %40, i32* %105, align 4, !tbaa !5
  %106 = add nsw i32 %39, 1
  br label %107

107:                                              ; preds = %103, %38
  %108 = phi i32 [ %106, %103 ], [ %39, %38 ]
  %109 = add nuw i32 %30, 2
  %110 = add i32 %31, -2
  %111 = icmp eq i32 %110, 0
  br i1 %111, label %43, label %28, !llvm.loop !28
}

declare nonnull align 8 dereferenceable(16) %"class.std::basic_istream"* @_ZNSirsERi(%"class.std::basic_istream"* nonnull align 8 dereferenceable(16), i32* nonnull align 4 dereferenceable(4)) local_unnamed_addr #0

declare nonnull align 8 dereferenceable(8) %"class.std::basic_ostream"* @_ZNSolsEi(%"class.std::basic_ostream"* nonnull align 8 dereferenceable(8), i32) local_unnamed_addr #0

declare nonnull align 8 dereferenceable(8) %"class.std::basic_ostream"* @_ZNSo3putEc(%"class.std::basic_ostream"* nonnull align 8 dereferenceable(8), i8 signext) local_unnamed_addr #0

declare nonnull align 8 dereferenceable(8) %"class.std::basic_ostream"* @_ZNSo5flushEv(%"class.std::basic_ostream"* nonnull align 8 dereferenceable(8)) local_unnamed_addr #0

; Function Attrs: noreturn
declare void @_ZSt16__throw_bad_castv() local_unnamed_addr #6

declare void @_ZNKSt5ctypeIcE13_M_widen_initEv(%"class.std::ctype"* nonnull align 8 dereferenceable(570)) local_unnamed_addr #0

; Function Attrs: sspstrong uwtable
define internal void @_GLOBAL__sub_I_820.cpp() #7 section ".text.startup" {
  tail call void @_ZNSt8ios_base4InitC1Ev(%"class.std::ios_base::Init"* nonnull align 1 dereferenceable(1) @_ZStL8__ioinit)
  %1 = tail call i32 @__cxa_atexit(void (i8*)* bitcast (void (%"class.std::ios_base::Init"*)* @_ZNSt8ios_base4InitD1Ev to void (i8*)*), i8* getelementptr inbounds (%"class.std::ios_base::Init", %"class.std::ios_base::Init"* @_ZStL8__ioinit, i64 0, i32 0), i8* nonnull @__dso_handle) #8
  ret void
}


!llvm.module.flags = !{!0, !1, !2, !3}
!llvm.ident = !{!4}

!0 = !{i32 1, !"wchar_size", i32 4}
!1 = !{i32 7, !"PIC Level", i32 2}
!2 = !{i32 7, !"PIE Level", i32 2}
!3 = !{i32 7, !"uwtable", i32 1}
!4 = !{!"clang version 13.0.0"}
!5 = !{!6, !6, i64 0}
!6 = !{!"int", !7, i64 0}
!7 = !{!"omnipotent char", !8, i64 0}
!8 = !{!"Simple C++ TBAA"}
!9 = distinct !{!9, !10}
!10 = !{!"llvm.loop.mustprogress"}
!11 = !{!12, !12, i64 0}
!12 = !{!"vtable pointer", !8, i64 0}
!13 = !{!14, !17, i64 32}
!14 = !{!"_ZTSSt8ios_base", !15, i64 8, !15, i64 16, !16, i64 24, !17, i64 28, !17, i64 32, !18, i64 40, !19, i64 48, !7, i64 64, !6, i64 192, !18, i64 200, !20, i64 208}
!15 = !{!"long", !7, i64 0}
!16 = !{!"_ZTSSt13_Ios_Fmtflags", !7, i64 0}
!17 = !{!"_ZTSSt12_Ios_Iostate", !7, i64 0}
!18 = !{!"any pointer", !7, i64 0}
!19 = !{!"_ZTSNSt8ios_base6_WordsE", !18, i64 0, !15, i64 8}
!20 = !{!"_ZTSSt6locale", !18, i64 0}
!21 = !{!22, !18, i64 240}
!22 = !{!"_ZTSSt9basic_iosIcSt11char_traitsIcEE", !18, i64 216, !7, i64 224, !23, i64 225, !18, i64 232, !18, i64 240, !18, i64 248, !18, i64 256}
!23 = !{!"bool", !7, i64 0}
!24 = !{!25, !7, i64 56}
!25 = !{!"_ZTSSt5ctypeIcE", !18, i64 16, !23, i64 24, !18, i64 32, !18, i64 40, !18, i64 48, !7, i64 56, !7, i64 57, !7, i64 313, !7, i64 569}
!26 = !{!7, !7, i64 0}
!27 = distinct !{!27, !10}
!28 = distinct !{!28, !10}
